; Function Attrs: mustprogress uwtable
define void @_ZN7rocksdb19MemTableListVersion3AddEPNS_16ReadOnlyMemTableEPNS_10autovectorIS2_Lm8EEE(ptr noundef nonnull align 8 dereferenceable(88) %0, ptr noundef %1, ptr noundef captures(none) %2) local_unnamed_addr #4 align 2 personality ptr @__gxx_personality_v0 {
  %4 = load ptr, ptr %0, align 8, !tbaa !18
  %5 = tail call noalias noundef nonnull dereferenceable(24) ptr @_Znwm(i64 noundef 24) #26
  %6 = getelementptr inbounds nuw i8, ptr %5, i64 16
  store ptr %1, ptr %6, align 8, !tbaa !21
  tail call void @_ZNSt8__detail15_List_node_base7_M_hookEPS0_(ptr noundef nonnull align 8 dereferenceable(16) %5, ptr noundef %4) #27
  %7 = getelementptr inbounds nuw i8, ptr %0, i64 16
  %8 = load i64, ptr %7, align 8, !tbaa !23
  %9 = add i64 %8, 1
  store i64 %9, ptr %7, align 8, !tbaa !23
  %10 = load ptr, ptr %1, align 8, !tbaa !27
  %11 = getelementptr inbounds nuw i8, ptr %10, i64 24
  %12 = load ptr, ptr %11, align 8
  %13 = tail call noundef i64 %12(ptr noundef nonnull align 8 dereferenceable(560) %1)
  %14 = getelementptr inbounds nuw i8, ptr %0, i64 72
  %15 = load ptr, ptr %14, align 8, !tbaa !29
  %16 = load i64, ptr %15, align 8, !tbaa !34
  %17 = add i64 %16, %13
  store i64 %17, ptr %15, align 8, !tbaa !34
  %18 = tail call noundef zeroext i1 @_ZN7rocksdb19MemTableListVersion11TrimHistoryEPNS_10autovectorIPNS_16ReadOnlyMemTableELm8EEEm(ptr noundef nonnull align 8 dereferenceable(88) %0, ptr noundef %2, i64 noundef 0)
  ret void
}